target datalayout = "e-m:e-p270:32:32-p271:32:32-p272:64:64-i64:64-i128:128-f80:128-n8:16:32:64-S128"
target triple = "x86_64-pc-linux-gnu"

%struct.SortSupportData = type { ptr, i32, i8, i8, i16, ptr, ptr, i8, ptr, ptr, ptr }
%struct.macaddr_sortsupport_state = type { i64, i8, %struct.hyperLogLogState }
%struct.hyperLogLogState = type { i8, i64, double, ptr, i64 }

; Function Attrs: inlinehint nounwind uwtable
define internal i64 @UInt32GetDatum(i32 noundef %0) #2 {
  %2 = alloca i32, align 4
  store i32 %0, ptr %2, align 4
  %3 = load i32, ptr %2, align 4
  %4 = zext i32 %3 to i64
  ret i64 %4
}

; Function Attrs: inlinehint nounwind uwtable
define internal ptr @DatumGetPointer(i64 noundef %0) #2 {
  %2 = alloca i64, align 8
  store i64 %0, ptr %2, align 8
  %3 = load i64, ptr %2, align 8
  %4 = inttoptr i64 %3 to ptr
  ret ptr %4
}

; Function Attrs: inlinehint nounwind uwtable
define internal i32 @DatumGetUInt32(i64 noundef %0) #2 {
  %2 = alloca i64, align 8
  store i64 %0, ptr %2, align 8
  %3 = load i64, ptr %2, align 8
  %4 = trunc i64 %3 to i32
  ret i32 %4
}

; Function Attrs: inlinehint nounwind uwtable
define internal i64 @hash_uint32(i32 noundef %0) #2 {
  %2 = alloca i32, align 4
  store i32 %0, ptr %2, align 4
  %3 = load i32, ptr %2, align 4
  %4 = call i32 @hash_bytes_uint32(i32 noundef %3)
  %5 = call i64 @UInt32GetDatum(i32 noundef %4)
  ret i64 %5
}

; Function Attrs: inlinehint nounwind uwtable
define internal ptr @DatumGetMacaddrP(i64 noundef %0) #2 {
  %2 = alloca i64, align 8
  store i64 %0, ptr %2, align 8
  %3 = load i64, ptr %2, align 8
  %4 = call ptr @DatumGetPointer(i64 noundef %3)
  ret ptr %4
}

; Function Attrs: nounwind uwtable
define internal i64 @macaddr_abbrev_convert(i64 noundef %0, ptr noundef %1) #0 {
  %3 = alloca i64, align 8
  %4 = alloca ptr, align 8
  %5 = alloca ptr, align 8
  %6 = alloca ptr, align 8
  %7 = alloca i64, align 8
  %8 = alloca i32, align 4
  store i64 %0, ptr %3, align 8
  store ptr %1, ptr %4, align 8
  call void @llvm.lifetime.start.p0(i64 8, ptr %5) #9
  %9 = load ptr, ptr %4, align 8
  %10 = getelementptr inbounds nuw %struct.SortSupportData, ptr %9, i32 0, i32 5
  %11 = load ptr, ptr %10, align 8
  store ptr %11, ptr %5, align 8
  call void @llvm.lifetime.start.p0(i64 8, ptr %6) #9
  %12 = load i64, ptr %3, align 8
  %13 = call ptr @DatumGetMacaddrP(i64 noundef %12)
  store ptr %13, ptr %6, align 8
  call void @llvm.lifetime.start.p0(i64 8, ptr %7) #9
  call void @llvm.memset.p0.i64(ptr align 8 %7, i8 0, i64 8, i1 false)
  %14 = load ptr, ptr %6, align 8
  call void @llvm.memcpy.p0.p0.i64(ptr align 8 %7, ptr align 1 %14, i64 6, i1 false)
  %15 = load ptr, ptr %5, align 8
  %16 = getelementptr inbounds nuw %struct.macaddr_sortsupport_state, ptr %15, i32 0, i32 0
  %17 = load i64, ptr %16, align 8
  %18 = add i64 %17, 1
  store i64 %18, ptr %16, align 8
  %19 = load ptr, ptr %5, align 8
  %20 = getelementptr inbounds nuw %struct.macaddr_sortsupport_state, ptr %19, i32 0, i32 1
  %21 = load i8, ptr %20, align 8, !range !4, !noundef !5
  %22 = trunc i8 %21 to i1
  br i1 %22, label %23, label %35

23:                                               ; preds = %2
  call void @llvm.lifetime.start.p0(i64 4, ptr %8) #9
  %24 = load i64, ptr %7, align 8
  %25 = trunc i64 %24 to i32
  %26 = load i64, ptr %7, align 8
  %27 = lshr i64 %26, 32
  %28 = trunc i64 %27 to i32
  %29 = xor i32 %25, %28
  store i32 %29, ptr %8, align 4
  %30 = load ptr, ptr %5, align 8
  %31 = getelementptr inbounds nuw %struct.macaddr_sortsupport_state, ptr %30, i32 0, i32 2
  %32 = load i32, ptr %8, align 4
  %33 = call i64 @hash_uint32(i32 noundef %32)
  %34 = call i32 @DatumGetUInt32(i64 noundef %33)
  call void @addHyperLogLog(ptr noundef %31, i32 noundef %34)
  call void @llvm.lifetime.end.p0(i64 4, ptr %8) #9
  br label %35

35:                                               ; preds = %23, %2
  %36 = load i64, ptr %7, align 8
  %37 = call i64 @llvm.bswap.i64(i64 %36)
  store i64 %37, ptr %7, align 8
  %38 = load i64, ptr %7, align 8
  call void @llvm.lifetime.end.p0(i64 8, ptr %7) #9
  call void @llvm.lifetime.end.p0(i64 8, ptr %6) #9
  call void @llvm.lifetime.end.p0(i64 8, ptr %5) #9
  ret i64 %38
}