; Function Attrs: nounwind uwtable
define internal i64 @macaddr_abbrev_convert(i64 noundef %0, ptr noundef readonly captures(none) %1) #0 {
  %3 = getelementptr inbounds nuw i8, ptr %1, i64 16
  %4 = load ptr, ptr %3, align 8
  %5 = inttoptr i64 %0 to ptr
  %.0.copyload = load i48, ptr %5, align 1
  %.0.insert.ext = zext i48 %.0.copyload to i64
  %6 = load i64, ptr %4, align 8
  %7 = add i64 %6, 1
  store i64 %7, ptr %4, align 8
  %8 = getelementptr inbounds nuw i8, ptr %4, i64 8
  %9 = load i8, ptr %8, align 8, !range !22, !noundef !23
  %10 = trunc nuw i8 %9 to i1
  br i1 %10, label %11, label %18

11:                                               ; preds = %2
  %12 = trunc i48 %.0.copyload to i32
  %13 = lshr i64 %.0.insert.ext, 32
  %14 = trunc nuw nsw i64 %13 to i32
  %15 = xor i32 %14, %12
  %16 = getelementptr inbounds nuw i8, ptr %4, i64 16
  %17 = tail call i32 @hash_bytes_uint32(i32 noundef %15) #7
  tail call void @addHyperLogLog(ptr noundef nonnull %16, i32 noundef %17) #7
  br label %18

18:                                               ; preds = %11, %2
  %19 = tail call i64 @llvm.bswap.i64(i64 %.0.insert.ext)
  ret i64 %19
}